target datalayout = "e-m:e-p270:32:32-p271:32:32-p272:64:64-i64:64-i128:128-f80:128-n8:16:32:64-S128"
target triple = "x86_64-pc-linux-gnu"

%"class.cv::Size_" = type { i32, i32 }
%"class.cv::RNG" = type { i64 }

; Function Attrs: mustprogress nounwind uwtable
define linkonce_odr hidden noundef i32 @_ZN2cv3RNG4nextEv(ptr noundef nonnull align 8 dereferenceable(8) %0) #4 comdat align 2 {
  %2 = alloca ptr, align 8
  store ptr %0, ptr %2, align 8
  %3 = load ptr, ptr %2, align 8
  %4 = getelementptr inbounds %"class.cv::RNG", ptr %3, i32 0, i32 0
  %5 = load i64, ptr %4, align 8
  %6 = trunc i64 %5 to i32
  %7 = zext i32 %6 to i64
  %8 = mul i64 %7, 4164903690
  %9 = getelementptr inbounds %"class.cv::RNG", ptr %3, i32 0, i32 0
  %10 = load i64, ptr %9, align 8
  %11 = lshr i64 %10, 32
  %12 = trunc i64 %11 to i32
  %13 = zext i32 %12 to i64
  %14 = add i64 %8, %13
  %15 = getelementptr inbounds %"class.cv::RNG", ptr %3, i32 0, i32 0
  store i64 %14, ptr %15, align 8
  %16 = getelementptr inbounds %"class.cv::RNG", ptr %3, i32 0, i32 0
  %17 = load i64, ptr %16, align 8
  %18 = trunc i64 %17 to i32
  ret i32 %18
}

; Function Attrs: mustprogress uwtable
define linkonce_odr hidden noundef double @_ZN2cv3RNGcvdEv(ptr noundef nonnull align 8 dereferenceable(8) %0) #6 comdat align 2 {
  %2 = alloca ptr, align 8
  %3 = alloca i32, align 4
  store ptr %0, ptr %2, align 8
  %4 = load ptr, ptr %2, align 8
  %5 = call noundef i32 @_ZN2cv3RNG4nextEv(ptr noundef nonnull align 8 dereferenceable(8) %4)
  store i32 %5, ptr %3, align 4
  %6 = load i32, ptr %3, align 4
  %7 = zext i32 %6 to i64
  %8 = shl i64 %7, 32
  %9 = call noundef i32 @_ZN2cv3RNG4nextEv(ptr noundef nonnull align 8 dereferenceable(8) %4)
  %10 = zext i32 %9 to i64
  %11 = or i64 %8, %10
  %12 = uitofp i64 %11 to double
  %13 = fmul double %12, 0x3BF0000000000000
  ret double %13
}

; Function Attrs: mustprogress uwtable
define internal noundef i32 @_ZL7cvRoundd(double noundef %0) #7 {
  %2 = alloca <2 x double>, align 16
  %3 = alloca double, align 8
  %4 = alloca <2 x double>, align 16
  %5 = alloca double, align 8
  %6 = alloca <2 x double>, align 16
  store double %0, ptr %5, align 8
  %7 = load double, ptr %5, align 8
  store double %7, ptr %3, align 8
  %8 = load double, ptr %3, align 8
  %9 = insertelement <2 x double> poison, double %8, i32 0
  %10 = insertelement <2 x double> %9, double 0.000000e+00, i32 1
  store <2 x double> %10, ptr %4, align 16
  %11 = load <2 x double>, ptr %4, align 16
  store <2 x double> %11, ptr %6, align 16
  %12 = load <2 x double>, ptr %6, align 16
  store <2 x double> %12, ptr %2, align 16
  %13 = load <2 x double>, ptr %2, align 16
  %14 = call noundef i32 @llvm.x86.sse2.cvtsd2si(<2 x double> %13)
  ret i32 %14
}

; Function Attrs: mustprogress nounwind uwtable
define linkonce_odr hidden void @_ZN2cv5Size_IiEC2Ev(ptr noundef nonnull align 4 dereferenceable(8) %0) unnamed_addr #4 comdat align 2 {
  %2 = alloca ptr, align 8
  store ptr %0, ptr %2, align 8
  %3 = load ptr, ptr %2, align 8
  %4 = getelementptr inbounds %"class.cv::Size_", ptr %3, i32 0, i32 0
  store i32 0, ptr %4, align 4
  %5 = getelementptr inbounds %"class.cv::Size_", ptr %3, i32 0, i32 1
  store i32 0, ptr %5, align 4
  ret void
}

; Function Attrs: mustprogress nounwind uwtable
define linkonce_odr void @_ZSt4swapIdENSt9enable_ifIXsr6__and_ISt6__not_ISt15__is_tuple_likeIT_EESt21is_move_constructibleIS3_ESt18is_move_assignableIS3_EEE5valueEvE4typeERS3_SC_(ptr noundef nonnull align 8 dereferenceable(8) %0, ptr noundef nonnull align 8 dereferenceable(8) %1) #4 comdat {
  %3 = alloca ptr, align 8
  %4 = alloca ptr, align 8
  %5 = alloca double, align 8
  store ptr %0, ptr %3, align 8
  store ptr %1, ptr %4, align 8
  %6 = load ptr, ptr %3, align 8
  %7 = load double, ptr %6, align 8
  store double %7, ptr %5, align 8
  %8 = load ptr, ptr %4, align 8
  %9 = load double, ptr %8, align 8
  %10 = load ptr, ptr %3, align 8
  store double %9, ptr %10, align 8
  %11 = load double, ptr %5, align 8
  %12 = load ptr, ptr %4, align 8
  store double %11, ptr %12, align 8
  ret void
}

; Function Attrs: mustprogress nounwind uwtable
define linkonce_odr hidden noundef i32 @_ZN2cv3RNGcvjEv(ptr noundef nonnull align 8 dereferenceable(8) %0) #4 comdat align 2 {
  %2 = alloca ptr, align 8
  store ptr %0, ptr %2, align 8
  %3 = load ptr, ptr %2, align 8
  %4 = call noundef i32 @_ZN2cv3RNG4nextEv(ptr noundef nonnull align 8 dereferenceable(8) %3)
  ret i32 %4
}

; Function Attrs: mustprogress uwtable
define linkonce_odr hidden noundef double @_ZN2cv3RNG7uniformEdd(ptr noundef nonnull align 8 dereferenceable(8) %0, double noundef %1, double noundef %2) #6 comdat align 2 {
  %4 = alloca ptr, align 8
  %5 = alloca double, align 8
  %6 = alloca double, align 8
  store ptr %0, ptr %4, align 8
  store double %1, ptr %5, align 8
  store double %2, ptr %6, align 8
  %7 = load ptr, ptr %4, align 8
  %8 = call noundef double @_ZN2cv3RNGcvdEv(ptr noundef nonnull align 8 dereferenceable(8) %7)
  %9 = load double, ptr %6, align 8
  %10 = load double, ptr %5, align 8
  %11 = fsub double %9, %10
  %12 = load double, ptr %5, align 8
  %13 = call double @llvm.fmuladd.f64(double %8, double %11, double %12)
  ret double %13
}

; Function Attrs: mustprogress uwtable
define hidden i64 @_ZN6cvtest10randomSizeERN2cv3RNGEd(ptr noundef nonnull align 8 dereferenceable(8) %0, double noundef %1) #6 {
  %3 = alloca %"class.cv::Size_", align 4
  %4 = alloca ptr, align 8
  %5 = alloca double, align 8
  %6 = alloca double, align 8
  %7 = alloca double, align 8
  store ptr %0, ptr %4, align 8
  store double %1, ptr %5, align 8
  %8 = load ptr, ptr %4, align 8
  %9 = load double, ptr %5, align 8
  %10 = call noundef double @_ZN2cv3RNG7uniformEdd(ptr noundef nonnull align 8 dereferenceable(8) %8, double noundef 0.000000e+00, double noundef %9)
  store double %10, ptr %6, align 8
  %11 = load ptr, ptr %4, align 8
  %12 = load double, ptr %5, align 8
  %13 = load double, ptr %6, align 8
  %14 = fsub double %12, %13
  %15 = call noundef double @_ZN2cv3RNG7uniformEdd(ptr noundef nonnull align 8 dereferenceable(8) %11, double noundef 0.000000e+00, double noundef %14)
  store double %15, ptr %7, align 8
  %16 = load ptr, ptr %4, align 8
  %17 = call noundef i32 @_ZN2cv3RNGcvjEv(ptr noundef nonnull align 8 dereferenceable(8) %16)
  %18 = urem i32 %17, 2
  %19 = icmp ne i32 %18, 0
  br i1 %19, label %20, label %21

20:                                               ; preds = %2
  call void @_ZSt4swapIdENSt9enable_ifIXsr6__and_ISt6__not_ISt15__is_tuple_likeIT_EESt21is_move_constructibleIS3_ESt18is_move_assignableIS3_EEE5valueEvE4typeERS3_SC_(ptr noundef nonnull align 8 dereferenceable(8) %6, ptr noundef nonnull align 8 dereferenceable(8) %7) #3
  br label %21

21:                                               ; preds = %20, %2
  call void @_ZN2cv5Size_IiEC2Ev(ptr noundef nonnull align 4 dereferenceable(8) %3)
  %22 = load double, ptr %6, align 8
  %23 = call double @exp(double noundef %22) #3
  %24 = call noundef i32 @_ZL7cvRoundd(double noundef %23)
  %25 = getelementptr inbounds %"class.cv::Size_", ptr %3, i32 0, i32 0
  store i32 %24, ptr %25, align 4
  %26 = load double, ptr %7, align 8
  %27 = call double @exp(double noundef %26) #3
  %28 = call noundef i32 @_ZL7cvRoundd(double noundef %27)
  %29 = getelementptr inbounds %"class.cv::Size_", ptr %3, i32 0, i32 1
  store i32 %28, ptr %29, align 4
  %30 = load i64, ptr %3, align 4
  ret i64 %30
}