; Function Attrs: mustprogress nofree nounwind willreturn memory(write, argmem: readwrite) uwtable
define hidden i64 @_ZN6cvtest10randomSizeERN2cv3RNGEd(ptr nocapture noundef nonnull align 8 dereferenceable(8) %0, double noundef %1) local_unnamed_addr #8 {
  %3 = load i64, ptr %0, align 8
  %4 = and i64 %3, 4294967295
  %5 = mul nuw i64 %4, 4164903690
  %6 = lshr i64 %3, 32
  %7 = add nuw i64 %5, %6
  %8 = shl i64 %7, 32
  %9 = and i64 %7, 4294967295
  %10 = mul nuw i64 %9, 4164903690
  %11 = lshr i64 %7, 32
  %12 = add nuw i64 %10, %11
  %13 = and i64 %12, 4294967295
  %14 = or disjoint i64 %13, %8
  %15 = uitofp i64 %14 to double
  %16 = fmul double %15, 0x3BF0000000000000
  %17 = tail call noundef double @llvm.fmuladd.f64(double %16, double %1, double 0.000000e+00)
  %18 = fsub double %1, %17
  %19 = mul nuw i64 %13, 4164903690
  %20 = lshr i64 %12, 32
  %21 = add nuw i64 %19, %20
  %22 = shl i64 %21, 32
  %23 = and i64 %21, 4294967295
  %24 = mul nuw i64 %23, 4164903690
  %25 = lshr i64 %21, 32
  %26 = add nuw i64 %24, %25
  %27 = and i64 %26, 4294967295
  %28 = or disjoint i64 %27, %22
  %29 = uitofp i64 %28 to double
  %30 = fmul double %29, 0x3BF0000000000000
  %31 = tail call noundef double @llvm.fmuladd.f64(double %30, double %18, double 0.000000e+00)
  %32 = mul nuw i64 %27, 4164903690
  %33 = lshr i64 %26, 32
  %34 = add nuw i64 %32, %33
  store i64 %34, ptr %0, align 8
  %35 = and i64 %26, 4294967296
  %.not = icmp eq i64 %35, 0
  %.08 = select i1 %.not, double %17, double %31
  %.0 = select i1 %.not, double %31, double %17
  %36 = tail call double @exp(double noundef %.08) #28
  %37 = insertelement <2 x double> poison, double %36, i64 0
  %38 = tail call noundef i32 @llvm.x86.sse2.cvtsd2si(<2 x double> %37)
  %39 = tail call double @exp(double noundef %.0) #28
  %40 = insertelement <2 x double> poison, double %39, i64 0
  %41 = tail call noundef i32 @llvm.x86.sse2.cvtsd2si(<2 x double> %40)
  %.sroa.3.0.insert.ext = zext i32 %41 to i64
  %.sroa.3.0.insert.shift = shl nuw i64 %.sroa.3.0.insert.ext, 32
  %.sroa.0.0.insert.ext = zext i32 %38 to i64
  %.sroa.0.0.insert.insert = or disjoint i64 %.sroa.3.0.insert.shift, %.sroa.0.0.insert.ext
  ret i64 %.sroa.0.0.insert.insert
}